; Function Attrs: nounwind sspstrong uwtable
define internal noundef i64 @rb_f_chop(i64 %0) #0 {
  %2 = tail call i64 @rb_lastline_get() #25
  %3 = icmp eq i64 %2, 0
  %4 = and i64 %2, 7
  %5 = icmp ne i64 %4, 0
  %6 = or i1 %3, %5
  br i1 %6, label %rbimpl_RB_TYPE_P_fastpath.exit.thread.i, label %rbimpl_RB_TYPE_P_fastpath.exit.i

rbimpl_RB_TYPE_P_fastpath.exit.i:                 ; preds = %1
  %7 = inttoptr i64 %2 to ptr
  %8 = load i64, ptr %7, align 8, !tbaa !42
  %9 = and i64 %8, 31
  %10 = icmp eq i64 %9, 5
  br i1 %10, label %uscore_get.exit, label %rbimpl_RB_TYPE_P_fastpath.exit.thread.i

rbimpl_RB_TYPE_P_fastpath.exit.thread.i:          ; preds = %rbimpl_RB_TYPE_P_fastpath.exit.i, %1
  %11 = load i64, ptr @rb_eTypeError, align 8, !tbaa !47
  %12 = icmp eq i64 %2, 4
  br i1 %12, label %15, label %13

13:                                               ; preds = %rbimpl_RB_TYPE_P_fastpath.exit.thread.i
  %14 = tail call ptr @rb_obj_classname(i64 noundef %2) #25
  br label %15

15:                                               ; preds = %13, %rbimpl_RB_TYPE_P_fastpath.exit.thread.i
  %16 = phi ptr [ %14, %13 ], [ @.str.228, %rbimpl_RB_TYPE_P_fastpath.exit.thread.i ]
  tail call void (i64, ptr, ...) @rb_raise(i64 noundef %11, ptr noundef nonnull @.str.227, ptr noundef %16) #26
  unreachable

uscore_get.exit:                                  ; preds = %rbimpl_RB_TYPE_P_fastpath.exit.i
  %.pr.i = load i64, ptr @rb_f_chop.rbimpl_id, align 8, !tbaa !47
  %.not4.i = icmp eq i64 %.pr.i, 0
  br i1 %.not4.i, label %.lr.ph.i, label %rbimpl_intern_const.exit

.lr.ph.i:                                         ; preds = %uscore_get.exit, %.lr.ph.i
  %17 = tail call i64 @rb_intern2(ptr noundef nonnull @.str.222, i64 noundef 4) #25
  store i64 %17, ptr @rb_f_chop.rbimpl_id, align 8, !tbaa !47
  %.not.i = icmp eq i64 %17, 0
  br i1 %.not.i, label %.lr.ph.i, label %rbimpl_intern_const.exit, !llvm.loop !163

rbimpl_intern_const.exit:                         ; preds = %.lr.ph.i, %uscore_get.exit
  %.lcssa.i = phi i64 [ %.pr.i, %uscore_get.exit ], [ %17, %.lr.ph.i ]
  %18 = tail call i64 @rb_funcall_passing_block(i64 noundef %2, i64 noundef %.lcssa.i, i32 noundef 0, ptr noundef null) #25
  tail call void @rb_lastline_set(i64 noundef %18) #25
  ret i64 %18
}